target datalayout = "e-m:e-p270:32:32-p271:32:32-p272:64:64-i64:64-i128:128-f80:128-n8:16:32:64-S128"
target triple = "x86_64-pc-linux-gnu"

%class.QString = type { %struct.QArrayDataPointer.21 }
%struct.QArrayDataPointer.21 = type { ptr, ptr, i64 }
%class.QModelIndex = type { i32, i32, i64, ptr }
%class.QFontMetrics = type { %class.QExplicitlySharedDataPointer }
%class.QExplicitlySharedDataPointer = type { ptr }
%class.QFont = type <{ %class.QExplicitlySharedDataPointer, i32, [4 x i8] }>
%class.QStyleOptionViewItem = type { %class.QStyleOption, %class.QFlags.35, %class.QFlags.35, i32, i32, %class.QSize, %class.QFont, i8, %class.QFlags.36, %class.QLocale, ptr, %class.QModelIndex, i32, %class.QIcon, %class.QString, i32, %class.QBrush }
%class.QStyleOption = type { i32, i32, %class.QFlags.34, i32, %class.QRect, %class.QFontMetrics, %class.QPalette, ptr }
%class.QFlags.34 = type { i32 }
%class.QRect = type { i32, i32, i32, i32 }
%class.QPalette = type <{ ptr, i32, [4 x i8] }>
%class.QFlags.35 = type { i32 }
%class.QSize = type { i32, i32 }
%class.QFlags.36 = type { i32 }
%class.QLocale = type { %class.QSharedDataPointer }
%class.QSharedDataPointer = type { ptr }
%class.QIcon = type { ptr }
%class.QBrush = type { %"class.std::unique_ptr" }
%"class.std::unique_ptr" = type { %"struct.std::__uniq_ptr_data" }
%"struct.std::__uniq_ptr_data" = type { %"class.std::__uniq_ptr_impl" }
%"class.std::__uniq_ptr_impl" = type { %"class.std::tuple" }
%"class.std::tuple" = type { %"struct.std::_Tuple_impl" }
%"struct.std::_Tuple_impl" = type { %"struct.std::_Head_base.38" }
%"struct.std::_Head_base.38" = type { ptr }

; Function Attrs: mustprogress nounwind uwtable
define linkonce_odr noundef i32 @_ZNK5QSize5widthEv(ptr noundef nonnull align 4 dereferenceable(8) %0) #2 comdat align 2 {
  %2 = alloca ptr, align 8
  store ptr %0, ptr %2, align 8
  %3 = load ptr, ptr %2, align 8
  %4 = getelementptr inbounds %class.QSize, ptr %3, i32 0, i32 0
  %5 = load i32, ptr %4, align 4
  ret i32 %5
}

; Function Attrs: mustprogress nounwind uwtable
define linkonce_odr void @_ZN11QModelIndexC2Ev(ptr noundef nonnull align 8 dereferenceable(24) %0) unnamed_addr #2 comdat align 2 {
  %2 = alloca ptr, align 8
  store ptr %0, ptr %2, align 8
  %3 = load ptr, ptr %2, align 8
  %4 = getelementptr inbounds %class.QModelIndex, ptr %3, i32 0, i32 0
  store i32 -1, ptr %4, align 8
  %5 = getelementptr inbounds %class.QModelIndex, ptr %3, i32 0, i32 1
  store i32 -1, ptr %5, align 4
  %6 = getelementptr inbounds %class.QModelIndex, ptr %3, i32 0, i32 2
  store i64 0, ptr %6, align 8
  %7 = getelementptr inbounds %class.QModelIndex, ptr %3, i32 0, i32 3
  store ptr null, ptr %7, align 8
  ret void
}

; Function Attrs: mustprogress uwtable
define noundef i32 @_ZNK10PacketList17sizeHintForColumnEi(ptr noundef nonnull align 8 dereferenceable(464) %0, i32 noundef %1) unnamed_addr #0 align 2 personality ptr @__gxx_personality_v0 {
  %3 = alloca ptr, align 8
  %4 = alloca i32, align 4
  %5 = alloca i32, align 4
  %6 = alloca %class.QStyleOptionViewItem, align 8
  %7 = alloca ptr, align 8
  %8 = alloca i32, align 4
  %9 = alloca %class.QSize, align 4
  %10 = alloca %class.QModelIndex, align 8
  store ptr %0, ptr %3, align 8
  store i32 %1, ptr %4, align 4
  %11 = load ptr, ptr %3, align 8
  store i32 0, ptr %5, align 4
  %12 = load i32, ptr %4, align 4
  %13 = call noundef ptr @_ZNK17QAbstractItemView21itemDelegateForColumnEi(ptr noundef nonnull align 8 dereferenceable(40) %11, i32 noundef %12)
  %14 = icmp ne ptr %13, null
  br i1 %14, label %15, label %33

15:                                               ; preds = %2
  call void @_ZN20QStyleOptionViewItemC1Ev(ptr noundef nonnull align 8 dereferenceable(208) %6)
  %16 = load ptr, ptr %11, align 8
  %17 = getelementptr inbounds ptr, ptr %16, i64 95
  %18 = load ptr, ptr %17, align 8
  invoke void %18(ptr noundef nonnull align 8 dereferenceable(40) %11, ptr noundef %6)
          to label %19 unwind label %29

19:                                               ; preds = %15
  %20 = load i32, ptr %4, align 4
  %21 = invoke noundef ptr @_ZNK17QAbstractItemView21itemDelegateForColumnEi(ptr noundef nonnull align 8 dereferenceable(40) %11, i32 noundef %20)
          to label %22 unwind label %29

22:                                               ; preds = %19
  call void @_ZN11QModelIndexC2Ev(ptr noundef nonnull align 8 dereferenceable(24) %10) #16
  %23 = load ptr, ptr %21, align 8
  %24 = getelementptr inbounds ptr, ptr %23, i64 13
  %25 = load ptr, ptr %24, align 8
  %26 = invoke i64 %25(ptr noundef nonnull align 8 dereferenceable(16) %21, ptr noundef nonnull align 8 dereferenceable(208) %6, ptr noundef nonnull align 8 dereferenceable(24) %10)
          to label %27 unwind label %29

27:                                               ; preds = %22
  store i64 %26, ptr %9, align 4
  %28 = call noundef i32 @_ZNK5QSize5widthEv(ptr noundef nonnull align 4 dereferenceable(8) %9) #16
  store i32 %28, ptr %5, align 4
  call void @_ZN20QStyleOptionViewItemD2Ev(ptr noundef nonnull align 8 dereferenceable(208) %6) #16
  br label %33

29:                                               ; preds = %22, %19, %15
  %30 = landingpad { ptr, i32 }
          cleanup
  %31 = extractvalue { ptr, i32 } %30, 0
  store ptr %31, ptr %7, align 8
  %32 = extractvalue { ptr, i32 } %30, 1
  store i32 %32, ptr %8, align 4
  call void @_ZN20QStyleOptionViewItemD2Ev(ptr noundef nonnull align 8 dereferenceable(208) %6) #16
  br label %39

33:                                               ; preds = %27, %2
  %34 = load i32, ptr %4, align 4
  %35 = call noundef i32 @_ZNK9QTreeView17sizeHintForColumnEi(ptr noundef nonnull align 8 dereferenceable(40) %11, i32 noundef %34)
  %36 = load i32, ptr %5, align 4
  %37 = add i32 %36, %35
  store i32 %37, ptr %5, align 4
  %38 = load i32, ptr %5, align 4
  ret i32 %38

39:                                               ; preds = %29
  %40 = load ptr, ptr %7, align 8
  %41 = load i32, ptr %8, align 4
  %42 = insertvalue { ptr, i32 } poison, ptr %40, 0
  %43 = insertvalue { ptr, i32 } %42, i32 %41, 1
  resume { ptr, i32 } %43
}