; Function Attrs: mustprogress uwtable
define noundef i32 @_ZNK10PacketList17sizeHintForColumnEi(ptr noundef nonnull align 8 dereferenceable(464) %0, i32 noundef %1) unnamed_addr #0 align 2 personality ptr @__gxx_personality_v0 {
  %3 = alloca %class.QStyleOptionViewItem, align 8
  %4 = alloca %class.QModelIndex, align 8
  %5 = tail call noundef ptr @_ZNK17QAbstractItemView21itemDelegateForColumnEi(ptr noundef nonnull align 8 dereferenceable(40) %0, i32 noundef %1)
  %.not = icmp eq ptr %5, null
  br i1 %.not, label %31, label %6

6:                                                ; preds = %2
  call void @_ZN20QStyleOptionViewItemC1Ev(ptr noundef nonnull align 8 dereferenceable(208) %3)
  %7 = load ptr, ptr %0, align 8
  %8 = getelementptr inbounds i8, ptr %7, i64 760
  %9 = load ptr, ptr %8, align 8
  invoke void %9(ptr noundef nonnull align 8 dereferenceable(40) %0, ptr noundef nonnull %3)
          to label %10 unwind label %29

10:                                               ; preds = %6
  %11 = invoke noundef ptr @_ZNK17QAbstractItemView21itemDelegateForColumnEi(ptr noundef nonnull align 8 dereferenceable(40) %0, i32 noundef %1)
          to label %12 unwind label %29

12:                                               ; preds = %10
  store i32 -1, ptr %4, align 8
  %13 = getelementptr inbounds i8, ptr %4, i64 4
  store i32 -1, ptr %13, align 4
  %14 = getelementptr inbounds i8, ptr %4, i64 8
  call void @llvm.memset.p0.i64(ptr noundef nonnull align 8 dereferenceable(16) %14, i8 0, i64 16, i1 false)
  %15 = load ptr, ptr %11, align 8
  %16 = getelementptr inbounds i8, ptr %15, i64 104
  %17 = load ptr, ptr %16, align 8
  %18 = invoke i64 %17(ptr noundef nonnull align 8 dereferenceable(16) %11, ptr noundef nonnull align 8 dereferenceable(208) %3, ptr noundef nonnull align 8 dereferenceable(24) %4)
          to label %19 unwind label %29

19:                                               ; preds = %12
  %.sroa.0.0.extract.trunc = trunc i64 %18 to i32
  %20 = getelementptr inbounds i8, ptr %3, i64 200
  call void @_ZN6QBrushD1Ev(ptr noundef nonnull align 8 dereferenceable(8) %20) #20
  %21 = getelementptr inbounds i8, ptr %3, i64 168
  %22 = load ptr, ptr %21, align 8
  %.not.i.i.i.i = icmp eq ptr %22, null
  br i1 %.not.i.i.i.i, label %_ZN20QStyleOptionViewItemD2Ev.exit, label %_ZN17QArrayDataPointerIDsE5derefEv.exit.i.i.i

_ZN17QArrayDataPointerIDsE5derefEv.exit.i.i.i:    ; preds = %19
  %23 = atomicrmw sub ptr %22, i32 1 seq_cst, align 4
  %.not.i.i.i = icmp eq i32 %23, 1
  br i1 %.not.i.i.i, label %24, label %_ZN20QStyleOptionViewItemD2Ev.exit

24:                                               ; preds = %_ZN17QArrayDataPointerIDsE5derefEv.exit.i.i.i
  %25 = load ptr, ptr %21, align 8
  call void @_ZN10QArrayData10deallocateEPS_xx(ptr noundef %25, i64 noundef 2, i64 noundef 8) #20
  br label %_ZN20QStyleOptionViewItemD2Ev.exit

_ZN20QStyleOptionViewItemD2Ev.exit:               ; preds = %19, %_ZN17QArrayDataPointerIDsE5derefEv.exit.i.i.i, %24
  %26 = getelementptr inbounds i8, ptr %3, i64 160
  call void @_ZN5QIconD1Ev(ptr noundef nonnull align 8 dereferenceable(8) %26) #20
  %27 = getelementptr inbounds i8, ptr %3, i64 112
  call void @_ZN7QLocaleD1Ev(ptr noundef nonnull align 8 dereferenceable(8) %27) #20
  %28 = getelementptr inbounds i8, ptr %3, i64 88
  call void @_ZN5QFontD1Ev(ptr noundef nonnull align 8 dereferenceable(12) %28) #20
  call void @_ZN12QStyleOptionD2Ev(ptr noundef nonnull align 8 dereferenceable(64) %3) #20
  br label %31

29:                                               ; preds = %12, %10, %6
  %30 = landingpad { ptr, i32 }
          cleanup
  call void @_ZN20QStyleOptionViewItemD2Ev(ptr noundef nonnull align 8 dereferenceable(208) %3) #20
  resume { ptr, i32 } %30

31:                                               ; preds = %_ZN20QStyleOptionViewItemD2Ev.exit, %2
  %.0 = phi i32 [ %.sroa.0.0.extract.trunc, %_ZN20QStyleOptionViewItemD2Ev.exit ], [ 0, %2 ]
  %32 = call noundef i32 @_ZNK9QTreeView17sizeHintForColumnEi(ptr noundef nonnull align 8 dereferenceable(40) %0, i32 noundef %1)
  %33 = add i32 %32, %.0
  ret i32 %33
}